target datalayout = "e-m:e-p270:32:32-p271:32:32-p272:64:64-i64:64-i128:128-f80:128-n8:16:32:64-S128"
target triple = "x86_64-pc-linux-gnu"

@.str.3 = private unnamed_addr constant [2 x i8] c"\0A\00", align 1
@.str.4 = private unnamed_addr constant [35 x i8] c"    flowmap [options] [selection]\0A\00", align 1
@.str.5 = private unnamed_addr constant [77 x i8] c"This pass uses the FlowMap technology mapping algorithm to pack logic gates\0A\00", align 1
@.str.6 = private unnamed_addr constant [81 x i8] c"into k-LUTs with optimal depth. It allows mapping any circuit elements that can\0A\00", align 1
@.str.7 = private unnamed_addr constant [79 x i8] c"be evaluated with the `eval` pass, including cells with multiple output ports\0A\00", align 1
@.str.8 = private unnamed_addr constant [39 x i8] c"and multi-bit input and output ports.\0A\00", align 1
@.str.9 = private unnamed_addr constant [15 x i8] c"    -maxlut k\0A\00", align 1
@.str.10 = private unnamed_addr constant [80 x i8] c"        perform technology mapping for a k-LUT architecture. if not specified,\0A\00", align 1
@.str.11 = private unnamed_addr constant [24 x i8] c"        defaults to 3.\0A\00", align 1
@.str.12 = private unnamed_addr constant [15 x i8] c"    -minlut n\0A\00", align 1
@.str.13 = private unnamed_addr constant [79 x i8] c"        only produce n-input or larger LUTs. if not specified, defaults to 1.\0A\00", align 1
@.str.14 = private unnamed_addr constant [32 x i8] c"    -cells <cell>[,<cell>,...]\0A\00", align 1
@.str.15 = private unnamed_addr constant [76 x i8] c"        map specified cells. if not specified, maps $_NOT_, $_AND_, $_OR_,\0A\00", align 1
@.str.16 = private unnamed_addr constant [75 x i8] c"        $_XOR_ and $_MUX_, which are the outputs of the `simplemap` pass.\0A\00", align 1
@.str.17 = private unnamed_addr constant [12 x i8] c"    -relax\0A\00", align 1
@.str.18 = private unnamed_addr constant [57 x i8] c"        perform depth relaxation and area minimization.\0A\00", align 1
@.str.19 = private unnamed_addr constant [39 x i8] c"    -r-alpha n, -r-beta n, -r-gamma n\0A\00", align 1
@.str.20 = private unnamed_addr constant [70 x i8] c"        parameters of depth relaxation heuristic potential function.\0A\00", align 1
@.str.21 = private unnamed_addr constant [53 x i8] c"        if not specified, alpha=8, beta=2, gamma=1.\0A\00", align 1
@.str.22 = private unnamed_addr constant [16 x i8] c"    -optarea n\0A\00", align 1
@.str.23 = private unnamed_addr constant [81 x i8] c"        optimize for area by trading off at most n logic levels for fewer LUTs.\0A\00", align 1
@.str.24 = private unnamed_addr constant [71 x i8] c"        n may be zero, to optimize for area without increasing depth.\0A\00", align 1
@.str.25 = private unnamed_addr constant [25 x i8] c"        implies -relax.\0A\00", align 1
@.str.26 = private unnamed_addr constant [12 x i8] c"    -debug\0A\00", align 1
@.str.27 = private unnamed_addr constant [35 x i8] c"        dump intermediate graphs.\0A\00", align 1
@.str.28 = private unnamed_addr constant [18 x i8] c"    -debug-relax\0A\00", align 1
@.str.29 = private unnamed_addr constant [62 x i8] c"        explain decisions performed during depth relaxation.\0A\00", align 1

; Function Attrs: mustprogress uwtable
define internal void @_ZN12_GLOBAL__N_111FlowmapPass4helpEv(ptr noundef nonnull align 8 dereferenceable(104) %0) unnamed_addr #4 align 2 {
  %2 = alloca ptr, align 8
  store ptr %0, ptr %2, align 8
  call void (ptr, ...) @_ZN5Yosys3logEPKcz(ptr noundef @.str.3)
  call void (ptr, ...) @_ZN5Yosys3logEPKcz(ptr noundef @.str.4)
  call void (ptr, ...) @_ZN5Yosys3logEPKcz(ptr noundef @.str.3)
  call void (ptr, ...) @_ZN5Yosys3logEPKcz(ptr noundef @.str.5)
  call void (ptr, ...) @_ZN5Yosys3logEPKcz(ptr noundef @.str.6)
  call void (ptr, ...) @_ZN5Yosys3logEPKcz(ptr noundef @.str.7)
  call void (ptr, ...) @_ZN5Yosys3logEPKcz(ptr noundef @.str.8)
  call void (ptr, ...) @_ZN5Yosys3logEPKcz(ptr noundef @.str.3)
  call void (ptr, ...) @_ZN5Yosys3logEPKcz(ptr noundef @.str.9)
  call void (ptr, ...) @_ZN5Yosys3logEPKcz(ptr noundef @.str.10)
  call void (ptr, ...) @_ZN5Yosys3logEPKcz(ptr noundef @.str.11)
  call void (ptr, ...) @_ZN5Yosys3logEPKcz(ptr noundef @.str.3)
  call void (ptr, ...) @_ZN5Yosys3logEPKcz(ptr noundef @.str.12)
  call void (ptr, ...) @_ZN5Yosys3logEPKcz(ptr noundef @.str.13)
  call void (ptr, ...) @_ZN5Yosys3logEPKcz(ptr noundef @.str.3)
  call void (ptr, ...) @_ZN5Yosys3logEPKcz(ptr noundef @.str.14)
  call void (ptr, ...) @_ZN5Yosys3logEPKcz(ptr noundef @.str.15)
  call void (ptr, ...) @_ZN5Yosys3logEPKcz(ptr noundef @.str.16)
  call void (ptr, ...) @_ZN5Yosys3logEPKcz(ptr noundef @.str.3)
  call void (ptr, ...) @_ZN5Yosys3logEPKcz(ptr noundef @.str.17)
  call void (ptr, ...) @_ZN5Yosys3logEPKcz(ptr noundef @.str.18)
  call void (ptr, ...) @_ZN5Yosys3logEPKcz(ptr noundef @.str.3)
  call void (ptr, ...) @_ZN5Yosys3logEPKcz(ptr noundef @.str.19)
  call void (ptr, ...) @_ZN5Yosys3logEPKcz(ptr noundef @.str.20)
  call void (ptr, ...) @_ZN5Yosys3logEPKcz(ptr noundef @.str.21)
  call void (ptr, ...) @_ZN5Yosys3logEPKcz(ptr noundef @.str.3)
  call void (ptr, ...) @_ZN5Yosys3logEPKcz(ptr noundef @.str.22)
  call void (ptr, ...) @_ZN5Yosys3logEPKcz(ptr noundef @.str.23)
  call void (ptr, ...) @_ZN5Yosys3logEPKcz(ptr noundef @.str.24)
  call void (ptr, ...) @_ZN5Yosys3logEPKcz(ptr noundef @.str.25)
  call void (ptr, ...) @_ZN5Yosys3logEPKcz(ptr noundef @.str.3)
  call void (ptr, ...) @_ZN5Yosys3logEPKcz(ptr noundef @.str.26)
  call void (ptr, ...) @_ZN5Yosys3logEPKcz(ptr noundef @.str.27)
  call void (ptr, ...) @_ZN5Yosys3logEPKcz(ptr noundef @.str.3)
  call void (ptr, ...) @_ZN5Yosys3logEPKcz(ptr noundef @.str.28)
  call void (ptr, ...) @_ZN5Yosys3logEPKcz(ptr noundef @.str.29)
  call void (ptr, ...) @_ZN5Yosys3logEPKcz(ptr noundef @.str.3)
  ret void
}